Microchip MPLAB XC8 Compiler V2.46

Linker command line:

-W-3 \
  --edf=C:\Program Files\Microchip\xc8\v2.46\pic\dat\20240104201356_en.msgs \
  -cn -h+dist/default/debug\i2c_lcd.X.debug.sym \
  --cmf=dist/default/debug\i2c_lcd.X.debug.cmf -z -Q16F887 \
  -oC:\Users\Admin\AppData\Local\Temp\xcAsco0.\driver_tmp_3.o \
  --defsym=__MPLAB_BUILD=1 --fixupoverflow=error \
  -Mdist/default/debug/i2c_lcd.X.debug.map \
  --md=C:\Users\Admin\AppData\Local\Temp\xcAsco0.\driver_tmp_0.dat -E1 \
  -ver=XC8 Compiler --acfsm=1493 -ACODE=00h-07FFhx4 -ASTRCODE=00h-01FFFh \
  -ASTRING=00h-0FFhx32 -ACONST=00h-0FFhx32 -AENTRY=00h-0FFhx32 \
  -ACOMMON=070h-07Fh -ABANK0=020h-06Fh -ABANK1=0A0h-0EFh \
  -ABANK2=0110h-016Fh -ABANK3=0190h-01EFh \
  -ARAM=020h-06Fh,0A0h-0EFh,0110h-016Fh,0190h-01EFh \
  -AABS1=020h-07Fh,0A0h-0EFh,0110h-016Fh,0190h-01EFh -ASFR0=00h-01Fh \
  -ASFR1=080h-09Fh -ASFR2=0100h-010Fh -ASFR3=0180h-018Fh \
  -ACONFIG=02007h-02008h -DCONFIG=2 -AIDLOC=02000h-02003h -DIDLOC=2 \
  -AEEDATA=00h-0FFh/02100h -peeprom_data=EEDATA -DEEDATA=2 -DCODE=2 \
  -DSTRCODE=2 -DSTRING=2 -DCONST=2 -DENTRY=2 \
  -preset_vec=00h,intentry,sivt,init,end_init -ppowerup=CODE -pcinit=CODE \
  -pfunctab=ENTRY -k \
  C:\Users\Admin\AppData\Local\Temp\xcAsco0.\driver_tmp_12.o \
  dist/default/debug\i2c_lcd.X.debug.o 

Object code version is 3.11

Machine type is 16F887



                Name                               Link     Load   Length Selector   Space Scale
C:\Users\Admin\AppData\Local\Temp\xcAsco0.\driver_tmp_12.o
                end_init                              0        0        3        0       0
                config                             2007     2007        2        0       4
dist/default/debug\i2c_lcd.X.debug.o
                cinit                               7F3      7F3        D      FE6       0
                config                             2007     2007        2        0       4
                text23                              456      456        8      8AC       0
                text22                              45E      45E        8      8BC       0
                text21                              483      483        E      906       0
                text20                              553      553       2A      AA6       0
                text19                              52F      52F       24      A5E       0
                text18                              491      491       14      922       0
                text17                              5D4      5D4       35      BA8       0
                text16                              4D0      4D0       1E      9A0       0
                text15                              609      609       42      C12       0
                text14                              64B      64B       51      C96       0
                text13                              57D      57D       2B      AFA       0
                text12                              448      448        7      890       0
                text11                              476      476        D      8EC       0
                text10                              442      442        6      884       0
                text9                               6EE      6EE       81      DDC       0
                text8                               44F      44F        7      89E       0
                text7                               5A8      5A8       2C      B50       0
                text6                               4EE      4EE       1F      9DC       0
                text5                               50D      50D       22      A1A       0
                text4                               4A5      4A5       15      94A       0
                text3                               4BA      4BA       16      974       0
                text2                               466      466        8      8CC       0
                text1                               76F      76F       84      EDE       0
                maintext                            69C      69C       52      D38       0
                cstackBANK0                          30       30        3       20       1
                cstackCOMMON                         70       70        E       70       1
                clrtext                             46E      46E        8      8DC       0
                bssBANK0                             20       20       10       20       1
                strings                               3        3       18        6       0

TOTAL           Name                               Link     Load   Length     Space
        CLASS   CODE           
                end_init                              0        0        3         0
                cinit                               7F3      7F3        D         0
                text23                              456      456        8         0
                text22                              45E      45E        8         0
                text21                              483      483        E         0
                text20                              553      553       2A         0
                text19                              52F      52F       24         0
                text18                              491      491       14         0
                text17                              5D4      5D4       35         0
                text16                              4D0      4D0       1E         0
                text15                              609      609       42         0
                text14                              64B      64B       51         0
                text13                              57D      57D       2B         0
                text12                              448      448        7         0
                text11                              476      476        D         0
                text10                              442      442        6         0
                text9                               6EE      6EE       81         0
                text8                               44F      44F        7         0
                text7                               5A8      5A8       2C         0
                text6                               4EE      4EE       1F         0
                text5                               50D      50D       22         0
                text4                               4A5      4A5       15         0
                text3                               4BA      4BA       16         0
                text2                               466      466        8         0
                text1                               76F      76F       84         0
                maintext                            69C      69C       52         0
                clrtext                             46E      46E        8         0

        CLASS   STRCODE        

        CLASS   STRING         
                strings                               3        3       18         0

        CLASS   CONST          

        CLASS   ENTRY          

        CLASS   COMMON         
                cstackCOMMON                         70       70        E         1

        CLASS   BANK0          
                cstackBANK0                          30       30        3         1
                bssBANK0                             20       20       10         1

        CLASS   BANK1          

        CLASS   BANK2          

        CLASS   BANK3          

        CLASS   RAM            

        CLASS   ABS1           
                abs_s1                               7E       7E        2         1

        CLASS   SFR0           

        CLASS   SFR1           

        CLASS   SFR2           

        CLASS   SFR3           

        CLASS   CONFIG         
                config                             2007     2007        2         4

        CLASS   IDLOC          

        CLASS   EEDATA         

        CLASS   HEAP           

        CLASS   STACK          



SEGMENTS        Name                           Load    Length   Top    Selector   Space  Class     Delta

                reset_vec                      000000  000003  000003         0       0  CODE        2
                strings                        000003  000018  00001B         6       0  STRING      2
                bssBANK0                       000020  000013  000033        20       1  BANK0       1
                cstackCOMMON                   000070  00000E  00007E        70       1  COMMON      1
                text10                         000442  000006  000448       884       0  CODE        2
                text12                         000448  000007  00044F       890       0  CODE        2
                text8                          00044F  000007  000456       89E       0  CODE        2
                text23                         000456  000008  00045E       8AC       0  CODE        2
                text22                         00045E  000008  000466       8BC       0  CODE        2
                text2                          000466  000008  00046E       8CC       0  CODE        2
                clrtext                        00046E  000008  000476       8DC       0  CODE        2
                text11                         000476  00000D  000483       8EC       0  CODE        2
                text21                         000483  00000E  000491       906       0  CODE        2
                text18                         000491  000014  0004A5       922       0  CODE        2
                text4                          0004A5  000015  0004BA       94A       0  CODE        2
                text3                          0004BA  000016  0004D0       974       0  CODE        2
                text16                         0004D0  00001E  0004EE       9A0       0  CODE        2
                text6                          0004EE  00001F  00050D       9DC       0  CODE        2
                text5                          00050D  000022  00052F       A1A       0  CODE        2
                text19                         00052F  000024  000553       A5E       0  CODE        2
                text20                         000553  00002A  00057D       AA6       0  CODE        2
                text13                         00057D  00002B  0005A8       AFA       0  CODE        2
                text7                          0005A8  00002C  0005D4       B50       0  CODE        2
                text17                         0005D4  000035  000609       BA8       0  CODE        2
                text15                         000609  000042  00064B       C12       0  CODE        2
                text14                         00064B  000051  00069C       C96       0  CODE        2
                maintext                       00069C  000052  0006EE       D38       0  CODE        2
                text9                          0006EE  000081  00076F       DDC       0  CODE        2
                text1                          00076F  000084  0007F3       EDE       0  CODE        2
                cinit                          0007F3  00000D  000800       FE6       0  CODE        2


UNUSED ADDRESS RANGES

        Name                Unused          Largest block    Delta
        BANK0            0033-006F             3D           1
        BANK1            00A0-00EF             50           1
        BANK2            0110-016F             60           1
        BANK3            0190-01EF             60           1
        CODE             001B-0441            427           2
                         0800-1FFF            800
        CONST            001B-0441            100           2
                         0800-1FFF            100
        EEDATA           2100-21FF            100           2
        ENTRY            001B-0441            100           2
                         0800-1FFF            100
        IDLOC            2000-2003              4           2
        RAM              0033-006F             3D           1
                         00A0-00EF             50
                         0110-016F             60
                         0190-01EF             60
        SFR0             0000-001F             20           1
        SFR1             0080-009F             20           1
        SFR2             0100-010F             10           1
        SFR3             0180-018F             10           1
        STRCODE          001B-0441            427           2
                         0800-1FFF           1800
        STRING           001B-0441            100           2
                         0800-1FFF            100

                                  Symbol Table

BCD_To_Decimal@number         cstackCOMMON 0075
I2C_LCD_BackLight@u8BackLight cstackCOMMON 0077
I2C_LCD_FlushVal@i            cstackCOMMON 0076
I2C_LCD_Init@i                cstackCOMMON 007D
I2C_LCD_Puts@sz               cstackCOMMON 007B
I2C_LCD_WriteCmd@u8Cmd        cstackCOMMON 007A
I2C_LCD_Write_4bit@u8Data     cstackCOMMON 0077
I2C_Read@i                    cstackCOMMON 0077
I2C_Read@pu8Data              cstackCOMMON 0072
I2C_Read@u8Address            cstackCOMMON 0076
I2C_Read@u8Length             cstackCOMMON 0073
I2C_Write@i                   cstackCOMMON 0075
I2C_Write@pu8Data             cstackCOMMON 0071
I2C_Write@u8Address           cstackCOMMON 0074
I2C_Write@u8Length            cstackCOMMON 0072
LCD_WaitBusy@temp             cstackCOMMON 0078
LCD_Write_Chr@chr             cstackCOMMON 007A
_BCD_To_Decimal               text3        04BA
_I2C_LCD_BackLight            text18       0491
_I2C_LCD_Clear                text12       0448
_I2C_LCD_FlushVal             text19       052F
_I2C_LCD_Init                 text9        06EE
_I2C_LCD_NewLine              text8        044F
_I2C_LCD_Puts                 text6        04EE
_I2C_LCD_WriteCmd             text13       057D
_I2C_LCD_Write_4bit           text17       05D4
_I2C_Read                     text15       0609
_I2C_Write                    text20       0553
_LCD_WaitBusy                 text14       064B
_LCD_Write_Chr                text7        05A8
_My_I2C_Init                  text10       0442
_PIR1bits                     (abs)        000C
_SSPADD                       (abs)        0093
_SSPBUF                       (abs)        0013
_SSPCON                       (abs)        0014
_SSPCON2bits                  (abs)        0091
_TRISC3                       (abs)        043B
_TRISC4                       (abs)        043C
__H__absolute__               __absolute__ 0000
__Habs1                       abs1         0000
__Hbank0                      bank0        0000
__Hbank1                      bank1        0000
__Hbank2                      bank2        0000
__Hbank3                      bank3        0000
__HbssBANK0                   bssBANK0     0000
__Hcinit                      cinit        0800
__Hclrtext                    clrtext      0000
__Hcode                       code         0000
__Hcommon                     common       0000
__Hconfig                     config       2009
__HcstackBANK0                cstackBANK0  0000
__HcstackCOMMON               cstackCOMMON 0000
__Heeprom_data                eeprom_data  0000
__Hend_init                   end_init     0003
__Hfunctab                    functab      0000
__Hheap                       heap         0000
__Hinit                       init         0000
__Hintentry                   intentry     0000
__Hmaintext                   maintext     0000
__Hpowerup                    powerup      0000
__Hram                        ram          0000
__Hreset_vec                  reset_vec    0000
__Hsfr0                       sfr0         0000
__Hsfr1                       sfr1         0000
__Hsfr2                       sfr2         0000
__Hsfr3                       sfr3         0000
__Hsivt                       sivt         0000
__Hspace_0                    (abs)        0800
__Hspace_1                    (abs)        007E
__Hspace_2                    (abs)        0000
__Hspace_3                    (abs)        0000
__Hspace_4                    (abs)        4010
__Hstack                      stack        0000
__Hstrings                    strings      0000
__Htext                       text         0000
__L__absolute__               __absolute__ 0000
__Labs1                       abs1         0000
__Lbank0                      bank0        0000
__Lbank1                      bank1        0000
__Lbank2                      bank2        0000
__Lbank3                      bank3        0000
__LbssBANK0                   bssBANK0     0000
__Lcinit                      cinit        07F3
__Lclrtext                    clrtext      0000
__Lcode                       code         0000
__Lcommon                     common       0000
__Lconfig                     config       0000
__LcstackBANK0                cstackBANK0  0000
__LcstackCOMMON               cstackCOMMON 0000
__Leeprom_data                eeprom_data  0000
__Lend_init                   end_init     0000
__Lfunctab                    functab      0000
__Lheap                       heap         0000
__Linit                       init         0000
__Lintentry                   intentry     0000
__Lmaintext                   maintext     0000
__Lpowerup                    powerup      0000
__Lram                        ram          0000
__Lreset_vec                  reset_vec    0000
__Lsfr0                       sfr0         0000
__Lsfr1                       sfr1         0000
__Lsfr2                       sfr2         0000
__Lsfr3                       sfr3         0000
__Lsivt                       sivt         0000
__Lspace_0                    (abs)        0000
__Lspace_1                    (abs)        0000
__Lspace_2                    (abs)        0000
__Lspace_3                    (abs)        0000
__Lspace_4                    (abs)        0000
__Lstack                      stack        0000
__Lstrings                    strings      0000
__Ltext                       text         0000
__S0                          (abs)        0800
__S1                          (abs)        007E
__S3                          (abs)        0000
___bmul                       text4        04A5
___bmul@multiplicand          cstackCOMMON 0070
___bmul@multiplier            cstackCOMMON 0072
___bmul@product               cstackCOMMON 0071
___heap_hi                    (abs)        0000
___heap_lo                    (abs)        0000
___int_sp                     stack        0000
___int_stack_hi               stack        0000
___int_stack_lo               stack        0000
___latbits                    (abs)        0002
___sp                         stack        0000
___stack_hi                   stack        0000
___stack_lo                   stack        0000
___stackhi                    (abs)        0000
___stacklo                    (abs)        0000
__end_of_BCD_To_Decimal       text3        04D0
__end_of_I2C_LCD_BackLight    text18       04A5
__end_of_I2C_LCD_Clear        text12       044F
__end_of_I2C_LCD_FlushVal     text19       0553
__end_of_I2C_LCD_Init         text9        076F
__end_of_I2C_LCD_NewLine      text8        0456
__end_of_I2C_LCD_Puts         text6        050D
__end_of_I2C_LCD_WriteCmd     text13       05A8
__end_of_I2C_LCD_Write_4bit   text17       0609
__end_of_I2C_Read             text15       064B
__end_of_I2C_Write            text20       057D
__end_of_LCD_WaitBusy         text14       069C
__end_of_LCD_Write_Chr        text7        05D4
__end_of_My_I2C_Init          text10       0448
__end_of___bmul               text4        04BA
__end_of__initialization      cinit        07FC
__end_of__stringtab           strings      0009
__end_of_ds1307_init          text5        052F
__end_of_i2c_init             text11       0483
__end_of_i2c_read             text16       04EE
__end_of_i2c_readTime         text1        07F3
__end_of_i2c_repeat_start     text2        046E
__end_of_i2c_start            text23       045E
__end_of_i2c_stop             text22       0466
__end_of_i2c_write            text21       0491
__end_of_main                 maintext     06EE
__initialization              cinit        07F3
__pbssBANK0                   bssBANK0     0020
__pcstackBANK0                cstackBANK0  0030
__pcstackCOMMON               cstackCOMMON 0070
__pmaintext                   maintext     069C
__pstrings                    strings      0003
__ptext1                      text1        076F
__ptext10                     text10       0442
__ptext11                     text11       0476
__ptext12                     text12       0448
__ptext13                     text13       057D
__ptext14                     text14       064B
__ptext15                     text15       0609
__ptext16                     text16       04D0
__ptext17                     text17       05D4
__ptext18                     text18       0491
__ptext19                     text19       052F
__ptext2                      text2        0466
__ptext20                     text20       0553
__ptext21                     text21       0483
__ptext22                     text22       045E
__ptext23                     text23       0456
__ptext3                      text3        04BA
__ptext4                      text4        04A5
__ptext5                      text5        050D
__ptext6                      text6        04EE
__ptext7                      text7        05A8
__ptext8                      text8        044F
__ptext9                      text9        06EE
__stringbase                  strings      0008
__stringtab                   strings      0003
_day                          bssBANK0     002A
_ds1307_init                  text5        050D
_hour                         bssBANK0     002C
_i2c_init                     text11       0476
_i2c_read                     text16       04D0
_i2c_readTime                 text1        076F
_i2c_repeat_start             text2        0466
_i2c_start                    text23       0456
_i2c_stop                     text22       045E
_i2c_write                    text21       0483
_main                         maintext     069C
_minute                       bssBANK0     002D
_month                        bssBANK0     0029
_second                       bssBANK0     002E
_u8LCD_Buff                   bssBANK0     0020
_u8LcdTmp                     bssBANK0     002F
_weekDay                      bssBANK0     002B
_year                         bssBANK0     0028
btemp                         (abs)        007E
clear_ram0                    clrtext      046E
end_of_initialization         cinit        07FC
i2c_read@tmp                  cstackCOMMON 0071
i2c_read@u8Ack                cstackCOMMON 0070
i2c_write@u8Data              cstackCOMMON 0070
intlevel0                     functab      0000
intlevel1                     functab      0000
intlevel2                     functab      0000
intlevel3                     functab      0000
intlevel4                     functab      0000
intlevel5                     functab      0000
reset_vec                     reset_vec    0000
start                         init         0000
start_initialization          cinit        07F3
wtemp0                        (abs)        007E


MODULE INFORMATION

Module		Function		Class		Link	Load	Size
C:\Program Files\Microchip\xc8\v2.46\pic\sources\c99\common\Umul8.c
		___bmul        		CODE           	04A5	0000	21

C:\Program Files\Microchip\xc8\v2.46\pic\sources\c99\common\Umul8.c estimated size: 21

newmain.c
		_I2C_LCD_Clear 		CODE           	0448	0000	7
		_LCD_WaitBusy  		CODE           	064B	0000	81
		_i2c_start     		CODE           	0456	0000	8
		_I2C_LCD_BackLight		CODE           	0491	0000	20
		_main          		CODE           	069C	0000	82
		_i2c_repeat_start		CODE           	0466	0000	8
		_I2C_Write     		CODE           	0553	0000	42
		_I2C_LCD_NewLine		CODE           	044F	0000	7
		_I2C_LCD_Write_4bit		CODE           	05D4	0000	53
		_I2C_Read      		CODE           	0609	0000	66
		_BCD_To_Decimal		CODE           	04BA	0000	22
		_i2c_write     		CODE           	0483	0000	14
		_ds1307_init   		CODE           	050D	0000	34
		_i2c_stop      		CODE           	045E	0000	8
		_i2c_read      		CODE           	04D0	0000	30
		_i2c_init      		CODE           	0476	0000	13
		_i2c_readTime  		CODE           	076F	0000	132
		_My_I2C_Init   		CODE           	0442	0000	6
		_I2C_LCD_WriteCmd		CODE           	057D	0000	43
		_I2C_LCD_Init  		CODE           	06EE	0000	129
		_I2C_LCD_Puts  		CODE           	04EE	0000	31
		_LCD_Write_Chr 		CODE           	05A8	0000	44
		_I2C_LCD_FlushVal		CODE           	052F	0000	36

newmain.c estimated size: 916

shared
		__stringtab    		STRING         	0003	0000	6
		__initialization		CODE           	07F3	0000	9

shared estimated size: 15

